target datalayout = "e-m:e-p270:32:32-p271:32:32-p272:64:64-i64:64-i128:128-f80:128-n8:16:32:64-S128"
target triple = "x86_64-pc-linux-gnu"

%struct.gz_state = type { %struct.gzFile_s, i32, i32, ptr, i32, i32, ptr, ptr, i32, i32, i64, i32, i32, i32, i32, i32, i64, i32, i32, ptr, %struct.z_stream_s }
%struct.gzFile_s = type { i32, ptr, i64 }
%struct.z_stream_s = type { ptr, i32, i64, ptr, i32, i64, ptr, ptr, ptr, ptr, ptr, i32, i64, i64 }

; Function Attrs: nounwind uwtable
define internal i32 @gz_zero(ptr noundef %0, i64 noundef %1) #0 {
  %3 = alloca i32, align 4
  %4 = alloca ptr, align 8
  %5 = alloca i64, align 8
  %6 = alloca i32, align 4
  %7 = alloca i32, align 4
  %8 = alloca ptr, align 8
  %9 = alloca i32, align 4
  store ptr %0, ptr %4, align 8, !tbaa !9
  store i64 %1, ptr %5, align 8, !tbaa !20
  call void @llvm.lifetime.start.p0(i64 4, ptr %6) #10
  call void @llvm.lifetime.start.p0(i64 4, ptr %7) #10
  call void @llvm.lifetime.start.p0(i64 8, ptr %8) #10
  %10 = load ptr, ptr %4, align 8, !tbaa !9
  %11 = getelementptr inbounds nuw %struct.gz_state, ptr %10, i32 0, i32 20
  store ptr %11, ptr %8, align 8, !tbaa !31
  %12 = load ptr, ptr %8, align 8, !tbaa !31
  %13 = getelementptr inbounds nuw %struct.z_stream_s, ptr %12, i32 0, i32 1
  %14 = load i32, ptr %13, align 8, !tbaa !33
  %15 = icmp ne i32 %14, 0
  br i1 %15, label %16, label %21

16:                                               ; preds = %2
  %17 = load ptr, ptr %4, align 8, !tbaa !9
  %18 = call i32 @gz_comp(ptr noundef %17, i32 noundef 0)
  %19 = icmp eq i32 %18, -1
  br i1 %19, label %20, label %21

20:                                               ; preds = %16
  store i32 -1, ptr %3, align 4
  store i32 1, ptr %9, align 4
  br label %75

21:                                               ; preds = %16, %2
  store i32 1, ptr %6, align 4, !tbaa !10
  br label %22

22:                                               ; preds = %69, %21
  %23 = load i64, ptr %5, align 8, !tbaa !20
  %24 = icmp ne i64 %23, 0
  br i1 %24, label %25, label %74

25:                                               ; preds = %22
  %26 = load ptr, ptr %4, align 8, !tbaa !9
  %27 = getelementptr inbounds nuw %struct.gz_state, ptr %26, i32 0, i32 4
  %28 = load i32, ptr %27, align 8, !tbaa !21
  %29 = zext i32 %28 to i64
  %30 = load i64, ptr %5, align 8, !tbaa !20
  %31 = icmp sgt i64 %29, %30
  br i1 %31, label %32, label %35

32:                                               ; preds = %25
  %33 = load i64, ptr %5, align 8, !tbaa !20
  %34 = trunc i64 %33 to i32
  br label %39

35:                                               ; preds = %25
  %36 = load ptr, ptr %4, align 8, !tbaa !9
  %37 = getelementptr inbounds nuw %struct.gz_state, ptr %36, i32 0, i32 4
  %38 = load i32, ptr %37, align 8, !tbaa !21
  br label %39

39:                                               ; preds = %35, %32
  %40 = phi i32 [ %34, %32 ], [ %38, %35 ]
  store i32 %40, ptr %7, align 4, !tbaa !10
  %41 = load i32, ptr %6, align 4, !tbaa !10
  %42 = icmp ne i32 %41, 0
  br i1 %42, label %43, label %49

43:                                               ; preds = %39
  %44 = load ptr, ptr %4, align 8, !tbaa !9
  %45 = getelementptr inbounds nuw %struct.gz_state, ptr %44, i32 0, i32 6
  %46 = load ptr, ptr %45, align 8, !tbaa !25
  %47 = load i32, ptr %7, align 4, !tbaa !10
  %48 = zext i32 %47 to i64
  call void @llvm.memset.p0.i64(ptr align 1 %46, i8 0, i64 %48, i1 false)
  store i32 0, ptr %6, align 4, !tbaa !10
  br label %49

49:                                               ; preds = %43, %39
  %50 = load i32, ptr %7, align 4, !tbaa !10
  %51 = load ptr, ptr %8, align 8, !tbaa !31
  %52 = getelementptr inbounds nuw %struct.z_stream_s, ptr %51, i32 0, i32 1
  store i32 %50, ptr %52, align 8, !tbaa !33
  %53 = load ptr, ptr %4, align 8, !tbaa !9
  %54 = getelementptr inbounds nuw %struct.gz_state, ptr %53, i32 0, i32 6
  %55 = load ptr, ptr %54, align 8, !tbaa !25
  %56 = load ptr, ptr %8, align 8, !tbaa !31
  %57 = getelementptr inbounds nuw %struct.z_stream_s, ptr %56, i32 0, i32 0
  store ptr %55, ptr %57, align 8, !tbaa !34
  %58 = load i32, ptr %7, align 4, !tbaa !10
  %59 = zext i32 %58 to i64
  %60 = load ptr, ptr %4, align 8, !tbaa !9
  %61 = getelementptr inbounds nuw %struct.gz_state, ptr %60, i32 0, i32 0
  %62 = getelementptr inbounds nuw %struct.gzFile_s, ptr %61, i32 0, i32 2
  %63 = load i64, ptr %62, align 8, !tbaa !27
  %64 = add nsw i64 %63, %59
  store i64 %64, ptr %62, align 8, !tbaa !27
  %65 = load ptr, ptr %4, align 8, !tbaa !9
  %66 = call i32 @gz_comp(ptr noundef %65, i32 noundef 0)
  %67 = icmp eq i32 %66, -1
  br i1 %67, label %68, label %69

68:                                               ; preds = %49
  store i32 -1, ptr %3, align 4
  store i32 1, ptr %9, align 4
  br label %75

69:                                               ; preds = %49
  %70 = load i32, ptr %7, align 4, !tbaa !10
  %71 = zext i32 %70 to i64
  %72 = load i64, ptr %5, align 8, !tbaa !20
  %73 = sub nsw i64 %72, %71
  store i64 %73, ptr %5, align 8, !tbaa !20
  br label %22, !llvm.loop !36

74:                                               ; preds = %22
  store i32 0, ptr %3, align 4
  store i32 1, ptr %9, align 4
  br label %75

75:                                               ; preds = %74, %68, %20
  call void @llvm.lifetime.end.p0(i64 8, ptr %8) #10
  call void @llvm.lifetime.end.p0(i64 4, ptr %7) #10
  call void @llvm.lifetime.end.p0(i64 4, ptr %6) #10
  %76 = load i32, ptr %3, align 4
  ret i32 %76
}

; Function Attrs: nounwind uwtable
define internal i64 @gz_write(ptr noundef %0, ptr noundef %1, i64 noundef %2) #0 {
  %4 = alloca i64, align 8
  %5 = alloca ptr, align 8
  %6 = alloca ptr, align 8
  %7 = alloca i64, align 8
  %8 = alloca i64, align 8
  %9 = alloca i32, align 4
  %10 = alloca i32, align 4
  %11 = alloca i32, align 4
  %12 = alloca i32, align 4
  store ptr %0, ptr %5, align 8, !tbaa !9
  store ptr %1, ptr %6, align 8, !tbaa !9
  store i64 %2, ptr %7, align 8, !tbaa !20
  call void @llvm.lifetime.start.p0(i64 8, ptr %8) #10
  %13 = load i64, ptr %7, align 8, !tbaa !20
  store i64 %13, ptr %8, align 8, !tbaa !20
  %14 = load i64, ptr %7, align 8, !tbaa !20
  %15 = icmp eq i64 %14, 0
  br i1 %15, label %16, label %17

16:                                               ; preds = %3
  store i64 0, ptr %4, align 8
  store i32 1, ptr %9, align 4
  br label %194

17:                                               ; preds = %3
  %18 = load ptr, ptr %5, align 8, !tbaa !9
  %19 = getelementptr inbounds nuw %struct.gz_state, ptr %18, i32 0, i32 4
  %20 = load i32, ptr %19, align 8, !tbaa !21
  %21 = icmp eq i32 %20, 0
  br i1 %21, label %22, label %27

22:                                               ; preds = %17
  %23 = load ptr, ptr %5, align 8, !tbaa !9
  %24 = call i32 @gz_init(ptr noundef %23)
  %25 = icmp eq i32 %24, -1
  br i1 %25, label %26, label %27

26:                                               ; preds = %22
  store i64 0, ptr %4, align 8
  store i32 1, ptr %9, align 4
  br label %194

27:                                               ; preds = %22, %17
  %28 = load ptr, ptr %5, align 8, !tbaa !9
  %29 = getelementptr inbounds nuw %struct.gz_state, ptr %28, i32 0, i32 17
  %30 = load i32, ptr %29, align 8, !tbaa !22
  %31 = icmp ne i32 %30, 0
  br i1 %31, label %32, label %43

32:                                               ; preds = %27
  %33 = load ptr, ptr %5, align 8, !tbaa !9
  %34 = getelementptr inbounds nuw %struct.gz_state, ptr %33, i32 0, i32 17
  store i32 0, ptr %34, align 8, !tbaa !22
  %35 = load ptr, ptr %5, align 8, !tbaa !9
  %36 = load ptr, ptr %5, align 8, !tbaa !9
  %37 = getelementptr inbounds nuw %struct.gz_state, ptr %36, i32 0, i32 16
  %38 = load i64, ptr %37, align 8, !tbaa !23
  %39 = call i32 @gz_zero(ptr noundef %35, i64 noundef %38)
  %40 = icmp eq i32 %39, -1
  br i1 %40, label %41, label %42

41:                                               ; preds = %32
  store i64 0, ptr %4, align 8
  store i32 1, ptr %9, align 4
  br label %194

42:                                               ; preds = %32
  br label %43

43:                                               ; preds = %42, %27
  %44 = load i64, ptr %7, align 8, !tbaa !20
  %45 = load ptr, ptr %5, align 8, !tbaa !9
  %46 = getelementptr inbounds nuw %struct.gz_state, ptr %45, i32 0, i32 4
  %47 = load i32, ptr %46, align 8, !tbaa !21
  %48 = zext i32 %47 to i64
  %49 = icmp ult i64 %44, %48
  br i1 %49, label %50, label %140

50:                                               ; preds = %43
  br label %51

51:                                               ; preds = %136, %50
  call void @llvm.lifetime.start.p0(i64 4, ptr %10) #10
  call void @llvm.lifetime.start.p0(i64 4, ptr %11) #10
  %52 = load ptr, ptr %5, align 8, !tbaa !9
  %53 = getelementptr inbounds nuw %struct.gz_state, ptr %52, i32 0, i32 20
  %54 = getelementptr inbounds nuw %struct.z_stream_s, ptr %53, i32 0, i32 1
  %55 = load i32, ptr %54, align 8, !tbaa !24
  %56 = icmp eq i32 %55, 0
  br i1 %56, label %57, label %64

57:                                               ; preds = %51
  %58 = load ptr, ptr %5, align 8, !tbaa !9
  %59 = getelementptr inbounds nuw %struct.gz_state, ptr %58, i32 0, i32 6
  %60 = load ptr, ptr %59, align 8, !tbaa !25
  %61 = load ptr, ptr %5, align 8, !tbaa !9
  %62 = getelementptr inbounds nuw %struct.gz_state, ptr %61, i32 0, i32 20
  %63 = getelementptr inbounds nuw %struct.z_stream_s, ptr %62, i32 0, i32 0
  store ptr %60, ptr %63, align 8, !tbaa !26
  br label %64

64:                                               ; preds = %57, %51
  %65 = load ptr, ptr %5, align 8, !tbaa !9
  %66 = getelementptr inbounds nuw %struct.gz_state, ptr %65, i32 0, i32 20
  %67 = getelementptr inbounds nuw %struct.z_stream_s, ptr %66, i32 0, i32 0
  %68 = load ptr, ptr %67, align 8, !tbaa !26
  %69 = load ptr, ptr %5, align 8, !tbaa !9
  %70 = getelementptr inbounds nuw %struct.gz_state, ptr %69, i32 0, i32 20
  %71 = getelementptr inbounds nuw %struct.z_stream_s, ptr %70, i32 0, i32 1
  %72 = load i32, ptr %71, align 8, !tbaa !24
  %73 = zext i32 %72 to i64
  %74 = getelementptr inbounds nuw i8, ptr %68, i64 %73
  %75 = load ptr, ptr %5, align 8, !tbaa !9
  %76 = getelementptr inbounds nuw %struct.gz_state, ptr %75, i32 0, i32 6
  %77 = load ptr, ptr %76, align 8, !tbaa !25
  %78 = ptrtoint ptr %74 to i64
  %79 = ptrtoint ptr %77 to i64
  %80 = sub i64 %78, %79
  %81 = trunc i64 %80 to i32
  store i32 %81, ptr %10, align 4, !tbaa !10
  %82 = load ptr, ptr %5, align 8, !tbaa !9
  %83 = getelementptr inbounds nuw %struct.gz_state, ptr %82, i32 0, i32 4
  %84 = load i32, ptr %83, align 8, !tbaa !21
  %85 = load i32, ptr %10, align 4, !tbaa !10
  %86 = sub i32 %84, %85
  store i32 %86, ptr %11, align 4, !tbaa !10
  %87 = load i32, ptr %11, align 4, !tbaa !10
  %88 = zext i32 %87 to i64
  %89 = load i64, ptr %7, align 8, !tbaa !20
  %90 = icmp ugt i64 %88, %89
  br i1 %90, label %91, label %94

91:                                               ; preds = %64
  %92 = load i64, ptr %7, align 8, !tbaa !20
  %93 = trunc i64 %92 to i32
  store i32 %93, ptr %11, align 4, !tbaa !10
  br label %94

94:                                               ; preds = %91, %64
  %95 = load ptr, ptr %5, align 8, !tbaa !9
  %96 = getelementptr inbounds nuw %struct.gz_state, ptr %95, i32 0, i32 6
  %97 = load ptr, ptr %96, align 8, !tbaa !25
  %98 = load i32, ptr %10, align 4, !tbaa !10
  %99 = zext i32 %98 to i64
  %100 = getelementptr inbounds nuw i8, ptr %97, i64 %99
  %101 = load ptr, ptr %6, align 8, !tbaa !9
  %102 = load i32, ptr %11, align 4, !tbaa !10
  %103 = zext i32 %102 to i64
  call void @llvm.memcpy.p0.p0.i64(ptr align 1 %100, ptr align 1 %101, i64 %103, i1 false)
  %104 = load i32, ptr %11, align 4, !tbaa !10
  %105 = load ptr, ptr %5, align 8, !tbaa !9
  %106 = getelementptr inbounds nuw %struct.gz_state, ptr %105, i32 0, i32 20
  %107 = getelementptr inbounds nuw %struct.z_stream_s, ptr %106, i32 0, i32 1
  %108 = load i32, ptr %107, align 8, !tbaa !24
  %109 = add i32 %108, %104
  store i32 %109, ptr %107, align 8, !tbaa !24
  %110 = load i32, ptr %11, align 4, !tbaa !10
  %111 = zext i32 %110 to i64
  %112 = load ptr, ptr %5, align 8, !tbaa !9
  %113 = getelementptr inbounds nuw %struct.gz_state, ptr %112, i32 0, i32 0
  %114 = getelementptr inbounds nuw %struct.gzFile_s, ptr %113, i32 0, i32 2
  %115 = load i64, ptr %114, align 8, !tbaa !27
  %116 = add nsw i64 %115, %111
  store i64 %116, ptr %114, align 8, !tbaa !27
  %117 = load ptr, ptr %6, align 8, !tbaa !9
  %118 = load i32, ptr %11, align 4, !tbaa !10
  %119 = zext i32 %118 to i64
  %120 = getelementptr inbounds nuw i8, ptr %117, i64 %119
  store ptr %120, ptr %6, align 8, !tbaa !9
  %121 = load i32, ptr %11, align 4, !tbaa !10
  %122 = zext i32 %121 to i64
  %123 = load i64, ptr %7, align 8, !tbaa !20
  %124 = sub i64 %123, %122
  store i64 %124, ptr %7, align 8, !tbaa !20
  %125 = load i64, ptr %7, align 8, !tbaa !20
  %126 = icmp ne i64 %125, 0
  br i1 %126, label %127, label %132

127:                                              ; preds = %94
  %128 = load ptr, ptr %5, align 8, !tbaa !9
  %129 = call i32 @gz_comp(ptr noundef %128, i32 noundef 0)
  %130 = icmp eq i32 %129, -1
  br i1 %130, label %131, label %132

131:                                              ; preds = %127
  store i64 0, ptr %4, align 8
  store i32 1, ptr %9, align 4
  br label %133

132:                                              ; preds = %127, %94
  store i32 0, ptr %9, align 4
  br label %133

133:                                              ; preds = %132, %131
  call void @llvm.lifetime.end.p0(i64 4, ptr %11) #10
  call void @llvm.lifetime.end.p0(i64 4, ptr %10) #10
  %134 = load i32, ptr %9, align 4
  switch i32 %134, label %194 [
    i32 0, label %135
  ]

135:                                              ; preds = %133
  br label %136

136:                                              ; preds = %135
  %137 = load i64, ptr %7, align 8, !tbaa !20
  %138 = icmp ne i64 %137, 0
  br i1 %138, label %51, label %139, !llvm.loop !28

139:                                              ; preds = %136
  br label %192

140:                                              ; preds = %43
  %141 = load ptr, ptr %5, align 8, !tbaa !9
  %142 = getelementptr inbounds nuw %struct.gz_state, ptr %141, i32 0, i32 20
  %143 = getelementptr inbounds nuw %struct.z_stream_s, ptr %142, i32 0, i32 1
  %144 = load i32, ptr %143, align 8, !tbaa !24
  %145 = icmp ne i32 %144, 0
  br i1 %145, label %146, label %151

146:                                              ; preds = %140
  %147 = load ptr, ptr %5, align 8, !tbaa !9
  %148 = call i32 @gz_comp(ptr noundef %147, i32 noundef 0)
  %149 = icmp eq i32 %148, -1
  br i1 %149, label %150, label %151

150:                                              ; preds = %146
  store i64 0, ptr %4, align 8
  store i32 1, ptr %9, align 4
  br label %194

151:                                              ; preds = %146, %140
  %152 = load ptr, ptr %6, align 8, !tbaa !9
  %153 = load ptr, ptr %5, align 8, !tbaa !9
  %154 = getelementptr inbounds nuw %struct.gz_state, ptr %153, i32 0, i32 20
  %155 = getelementptr inbounds nuw %struct.z_stream_s, ptr %154, i32 0, i32 0
  store ptr %152, ptr %155, align 8, !tbaa !26
  br label %156

156:                                              ; preds = %188, %151
  call void @llvm.lifetime.start.p0(i64 4, ptr %12) #10
  store i32 -1, ptr %12, align 4, !tbaa !10
  %157 = load i32, ptr %12, align 4, !tbaa !10
  %158 = zext i32 %157 to i64
  %159 = load i64, ptr %7, align 8, !tbaa !20
  %160 = icmp ugt i64 %158, %159
  br i1 %160, label %161, label %164

161:                                              ; preds = %156
  %162 = load i64, ptr %7, align 8, !tbaa !20
  %163 = trunc i64 %162 to i32
  store i32 %163, ptr %12, align 4, !tbaa !10
  br label %164

164:                                              ; preds = %161, %156
  %165 = load i32, ptr %12, align 4, !tbaa !10
  %166 = load ptr, ptr %5, align 8, !tbaa !9
  %167 = getelementptr inbounds nuw %struct.gz_state, ptr %166, i32 0, i32 20
  %168 = getelementptr inbounds nuw %struct.z_stream_s, ptr %167, i32 0, i32 1
  store i32 %165, ptr %168, align 8, !tbaa !24
  %169 = load i32, ptr %12, align 4, !tbaa !10
  %170 = zext i32 %169 to i64
  %171 = load ptr, ptr %5, align 8, !tbaa !9
  %172 = getelementptr inbounds nuw %struct.gz_state, ptr %171, i32 0, i32 0
  %173 = getelementptr inbounds nuw %struct.gzFile_s, ptr %172, i32 0, i32 2
  %174 = load i64, ptr %173, align 8, !tbaa !27
  %175 = add nsw i64 %174, %170
  store i64 %175, ptr %173, align 8, !tbaa !27
  %176 = load ptr, ptr %5, align 8, !tbaa !9
  %177 = call i32 @gz_comp(ptr noundef %176, i32 noundef 0)
  %178 = icmp eq i32 %177, -1
  br i1 %178, label %179, label %180

179:                                              ; preds = %164
  store i64 0, ptr %4, align 8
  store i32 1, ptr %9, align 4
  br label %185

180:                                              ; preds = %164
  %181 = load i32, ptr %12, align 4, !tbaa !10
  %182 = zext i32 %181 to i64
  %183 = load i64, ptr %7, align 8, !tbaa !20
  %184 = sub i64 %183, %182
  store i64 %184, ptr %7, align 8, !tbaa !20
  store i32 0, ptr %9, align 4
  br label %185

185:                                              ; preds = %180, %179
  call void @llvm.lifetime.end.p0(i64 4, ptr %12) #10
  %186 = load i32, ptr %9, align 4
  switch i32 %186, label %194 [
    i32 0, label %187
  ]

187:                                              ; preds = %185
  br label %188

188:                                              ; preds = %187
  %189 = load i64, ptr %7, align 8, !tbaa !20
  %190 = icmp ne i64 %189, 0
  br i1 %190, label %156, label %191, !llvm.loop !30

191:                                              ; preds = %188
  br label %192

192:                                              ; preds = %191, %139
  %193 = load i64, ptr %8, align 8, !tbaa !20
  store i64 %193, ptr %4, align 8
  store i32 1, ptr %9, align 4
  br label %194

194:                                              ; preds = %192, %185, %150, %133, %41, %26, %16
  call void @llvm.lifetime.end.p0(i64 8, ptr %8) #10
  %195 = load i64, ptr %4, align 8
  ret i64 %195
}