; Function Attrs: nounwind uwtable
define internal fastcc noundef i64 @gz_write(ptr noundef nonnull %0, ptr noundef %1, i64 noundef %2) unnamed_addr #0 {
  %4 = icmp eq i64 %2, 0
  br i1 %4, label %.critedge70, label %5

5:                                                ; preds = %3
  %6 = getelementptr inbounds nuw i8, ptr %0, i64 40
  %7 = load i32, ptr %6, align 8, !tbaa !16
  %8 = icmp eq i32 %7, 0
  br i1 %8, label %9, label %12

9:                                                ; preds = %5
  %10 = tail call fastcc i32 @gz_init(ptr noundef %0)
  %11 = icmp eq i32 %10, -1
  br i1 %11, label %.critedge70, label %12

12:                                               ; preds = %9, %5
  %13 = getelementptr inbounds nuw i8, ptr %0, i64 112
  %14 = load i32, ptr %13, align 8, !tbaa !17
  %.not = icmp eq i32 %14, 0
  br i1 %.not, label %gz_zero.exit, label %15

15:                                               ; preds = %12
  store i32 0, ptr %13, align 8, !tbaa !17
  %16 = getelementptr inbounds nuw i8, ptr %0, i64 104
  %17 = load i64, ptr %16, align 8, !tbaa !18
  %18 = getelementptr inbounds nuw i8, ptr %0, i64 128
  %19 = getelementptr inbounds nuw i8, ptr %0, i64 136
  %20 = load i32, ptr %19, align 8, !tbaa !19
  %.not.i = icmp eq i32 %20, 0
  br i1 %.not.i, label %24, label %21

21:                                               ; preds = %15
  %22 = tail call fastcc i32 @gz_comp(ptr noundef nonnull %0, i32 noundef 0)
  %23 = icmp eq i32 %22, -1
  br i1 %23, label %.critedge70, label %24

24:                                               ; preds = %21, %15
  %.not2224.i = icmp eq i64 %17, 0
  br i1 %.not2224.i, label %gz_zero.exit, label %.lr.ph.i

.lr.ph.i:                                         ; preds = %24
  %25 = getelementptr inbounds nuw i8, ptr %0, i64 48
  %26 = getelementptr inbounds nuw i8, ptr %0, i64 16
  br label %29

27:                                               ; preds = %37
  %28 = sub nsw i64 %.02026.i, %.pre-phi.i
  %.not22.i = icmp eq i64 %28, 0
  br i1 %.not22.i, label %gz_zero.exit, label %29, !llvm.loop !20

29:                                               ; preds = %27, %.lr.ph.i
  %.02026.i = phi i64 [ %17, %.lr.ph.i ], [ %28, %27 ]
  %.not2325.i = phi i1 [ false, %.lr.ph.i ], [ true, %27 ]
  %30 = load i32, ptr %6, align 8, !tbaa !16
  %31 = zext i32 %30 to i64
  %32 = tail call i64 @llvm.smin.i64(i64 %.02026.i, i64 %31)
  %33 = trunc i64 %32 to i32
  br i1 %.not2325.i, label %._crit_edge.i, label %34

._crit_edge.i:                                    ; preds = %29
  %.pre.i = and i64 %32, 4294967295
  br label %37

34:                                               ; preds = %29
  %35 = load ptr, ptr %25, align 8, !tbaa !22
  %36 = and i64 %32, 4294967295
  tail call void @llvm.memset.p0.i64(ptr align 1 %35, i8 0, i64 %36, i1 false)
  br label %37

37:                                               ; preds = %34, %._crit_edge.i
  %.pre-phi.i = phi i64 [ %.pre.i, %._crit_edge.i ], [ %36, %34 ]
  store i32 %33, ptr %19, align 8, !tbaa !19
  %38 = load ptr, ptr %25, align 8, !tbaa !22
  store ptr %38, ptr %18, align 8, !tbaa !23
  %39 = load i64, ptr %26, align 8, !tbaa !24
  %40 = add nsw i64 %39, %.pre-phi.i
  store i64 %40, ptr %26, align 8, !tbaa !24
  %41 = tail call fastcc i32 @gz_comp(ptr noundef nonnull %0, i32 noundef 0)
  %42 = icmp eq i32 %41, -1
  br i1 %42, label %.critedge70, label %27

gz_zero.exit:                                     ; preds = %27, %24, %12
  %43 = load i32, ptr %6, align 8, !tbaa !16
  %44 = zext i32 %43 to i64
  %45 = icmp ult i64 %2, %44
  %46 = getelementptr inbounds nuw i8, ptr %0, i64 128
  %47 = getelementptr inbounds nuw i8, ptr %0, i64 136
  br i1 %45, label %.preheader, label %78

.preheader:                                       ; preds = %gz_zero.exit
  %48 = getelementptr inbounds nuw i8, ptr %0, i64 48
  %49 = getelementptr inbounds nuw i8, ptr %0, i64 16
  br label %50

50:                                               ; preds = %.preheader, %74
  %.060 = phi i64 [ %73, %74 ], [ %2, %.preheader ]
  %.059 = phi ptr [ %75, %74 ], [ %1, %.preheader ]
  %51 = load i32, ptr %47, align 8, !tbaa !25
  %52 = icmp eq i32 %51, 0
  br i1 %52, label %53, label %._crit_edge

._crit_edge:                                      ; preds = %50
  %.pre = load ptr, ptr %46, align 8, !tbaa !26
  %.pre80 = load ptr, ptr %48, align 8, !tbaa !22
  br label %55

53:                                               ; preds = %50
  %54 = load ptr, ptr %48, align 8, !tbaa !22
  store ptr %54, ptr %46, align 8, !tbaa !26
  br label %55

55:                                               ; preds = %._crit_edge, %53
  %56 = phi ptr [ %.pre80, %._crit_edge ], [ %54, %53 ]
  %57 = phi ptr [ %.pre, %._crit_edge ], [ %54, %53 ]
  %58 = zext i32 %51 to i64
  %59 = getelementptr inbounds nuw i8, ptr %57, i64 %58
  %60 = ptrtoint ptr %59 to i64
  %61 = ptrtoint ptr %56 to i64
  %62 = sub i64 %60, %61
  %63 = trunc i64 %62 to i32
  %64 = load i32, ptr %6, align 8, !tbaa !16
  %65 = sub i32 %64, %63
  %66 = zext i32 %65 to i64
  %spec.select73 = tail call i64 @llvm.umin.i64(i64 %.060, i64 %66)
  %spec.select = trunc nuw i64 %spec.select73 to i32
  %67 = and i64 %62, 4294967295
  %68 = getelementptr inbounds nuw i8, ptr %56, i64 %67
  tail call void @llvm.memcpy.p0.p0.i64(ptr align 1 %68, ptr align 1 %.059, i64 %spec.select73, i1 false)
  %69 = load i32, ptr %47, align 8, !tbaa !25
  %70 = add i32 %69, %spec.select
  store i32 %70, ptr %47, align 8, !tbaa !25
  %71 = load i64, ptr %49, align 8, !tbaa !24
  %72 = add nsw i64 %spec.select73, %71
  store i64 %72, ptr %49, align 8, !tbaa !24
  %73 = sub i64 %.060, %spec.select73
  %.not68 = icmp eq i64 %73, 0
  br i1 %.not68, label %.critedge70, label %74

74:                                               ; preds = %55
  %75 = getelementptr inbounds nuw i8, ptr %.059, i64 %spec.select73
  %76 = tail call fastcc i32 @gz_comp(ptr noundef %0, i32 noundef 0)
  %77 = icmp eq i32 %76, -1
  br i1 %77, label %.critedge70, label %50

78:                                               ; preds = %gz_zero.exit
  %79 = load i32, ptr %47, align 8, !tbaa !25
  %.not65 = icmp eq i32 %79, 0
  br i1 %.not65, label %83, label %80

80:                                               ; preds = %78
  %81 = tail call fastcc i32 @gz_comp(ptr noundef %0, i32 noundef 0)
  %82 = icmp eq i32 %81, -1
  br i1 %82, label %.critedge70, label %83

83:                                               ; preds = %80, %78
  store ptr %1, ptr %46, align 8, !tbaa !26
  %84 = getelementptr inbounds nuw i8, ptr %0, i64 16
  br label %85

85:                                               ; preds = %89, %83
  %.161 = phi i64 [ %2, %83 ], [ %90, %89 ]
  %spec.select6972 = tail call i64 @llvm.umin.i64(i64 %.161, i64 4294967295)
  %spec.select69 = trunc nuw i64 %spec.select6972 to i32
  store i32 %spec.select69, ptr %47, align 8, !tbaa !25
  %86 = load i64, ptr %84, align 8, !tbaa !24
  %87 = add nsw i64 %86, %spec.select6972
  store i64 %87, ptr %84, align 8, !tbaa !24
  %88 = tail call fastcc i32 @gz_comp(ptr noundef %0, i32 noundef 0)
  %.not66 = icmp eq i32 %88, -1
  br i1 %.not66, label %.critedge70, label %89

89:                                               ; preds = %85
  %90 = sub i64 %.161, %spec.select6972
  %.not67 = icmp eq i64 %90, 0
  br i1 %.not67, label %.critedge70, label %85, !llvm.loop !27

.critedge70:                                      ; preds = %37, %89, %85, %55, %74, %21, %80, %9, %3
  %.056 = phi i64 [ 0, %3 ], [ 0, %9 ], [ 0, %80 ], [ 0, %21 ], [ %2, %55 ], [ 0, %74 ], [ %2, %89 ], [ 0, %85 ], [ 0, %37 ]
  ret i64 %.056
}